target datalayout = "e-m:e-p270:32:32-p271:32:32-p272:64:64-i64:64-i128:128-f80:128-n8:16:32:64-S128"
target triple = "x86_64-pc-linux-gnu"

%struct.strvec = type { ptr, i64, i64 }
%struct.strbuf = type { i64, i64, ptr }
%struct.child_process = type { %struct.strvec, %struct.strvec, i32, i32, i64, ptr, ptr, i32, i32, i32, ptr, i16, ptr }

@.str = private unnamed_addr constant [6 x i8] c"apply\00", align 1
@.str.49 = private unnamed_addr constant [9 x i8] c"--cached\00", align 1

; Function Attrs: nounwind uwtable
define internal i32 @apply_cached(ptr noundef %0) #0 {
  %2 = alloca ptr, align 8
  %3 = alloca %struct.child_process, align 8
  store ptr %0, ptr %2, align 8, !tbaa !127
  call void @llvm.lifetime.start.p0(i64 120, ptr %3) #9
  call void @llvm.memcpy.p0.p0.i64(ptr align 8 %3, ptr align 8 @__const.apply_cached.cp, i64 120, i1 false)
  %4 = getelementptr inbounds nuw %struct.child_process, ptr %3, i32 0, i32 11
  %5 = load i16, ptr %4, align 8
  %6 = and i16 %5, -9
  %7 = or i16 %6, 8
  store i16 %7, ptr %4, align 8
  %8 = getelementptr inbounds nuw %struct.child_process, ptr %3, i32 0, i32 0
  call void (ptr, ...) @strvec_pushl(ptr noundef %8, ptr noundef @.str, ptr noundef @.str.49, ptr noundef null)
  %9 = load ptr, ptr %2, align 8, !tbaa !127
  %10 = getelementptr inbounds nuw %struct.strbuf, ptr %9, i32 0, i32 2
  %11 = load ptr, ptr %10, align 8, !tbaa !112
  %12 = load ptr, ptr %2, align 8, !tbaa !127
  %13 = getelementptr inbounds nuw %struct.strbuf, ptr %12, i32 0, i32 1
  %14 = load i64, ptr %13, align 8, !tbaa !114
  %15 = call i32 @pipe_command(ptr noundef %3, ptr noundef %11, i64 noundef %14, ptr noundef null, i64 noundef 0, ptr noundef null, i64 noundef 0)
  call void @llvm.lifetime.end.p0(i64 120, ptr %3) #9
  ret i32 %15
}