; Function Attrs: nounwind uwtable
define internal fastcc i32 @apply_cached(ptr noundef nonnull readonly captures(none) %0) unnamed_addr #0 {
  %2 = alloca %struct.child_process, align 8
  call void @llvm.lifetime.start.p0(i64 120, ptr nonnull %2) #15
  call void @llvm.memcpy.p0.p0.i64(ptr noundef nonnull align 8 dereferenceable(120) %2, ptr noundef nonnull align 8 dereferenceable(120) @__const.do_push_stash.cp.159, i64 120, i1 false)
  %3 = getelementptr inbounds nuw i8, ptr %2, i64 104
  store i16 8, ptr %3, align 8
  call void (ptr, ...) @strvec_pushl(ptr noundef nonnull %2, ptr noundef nonnull @.str, ptr noundef nonnull @.str.49, ptr noundef null) #15
  %4 = getelementptr inbounds nuw i8, ptr %0, i64 16
  %5 = load ptr, ptr %4, align 8, !tbaa !131
  %6 = getelementptr inbounds nuw i8, ptr %0, i64 8
  %7 = load i64, ptr %6, align 8, !tbaa !132
  %8 = call i32 @pipe_command(ptr noundef nonnull %2, ptr noundef %5, i64 noundef %7, ptr noundef null, i64 noundef 0, ptr noundef null, i64 noundef 0) #15
  call void @llvm.lifetime.end.p0(i64 120, ptr nonnull %2) #15
  ret i32 %8
}